; Function Attrs: mustprogress nofree nounwind willreturn uwtable
define dso_local zeroext i1 @i128_can_convert_from_double(double noundef %0) local_unnamed_addr #10 {
  %2 = tail call double @llvm.fabs.f64(double %0)
  %3 = fcmp one double %2, 0x7FF0000000000000
  %4 = fcmp ogt double %0, -1.000000e+00
  %or.cond = and i1 %4, %3
  br i1 %or.cond, label %5, label %8

5:                                                ; preds = %1
  %6 = tail call double @ldexp(double noundef 1.000000e+00, i32 noundef 128) #19
  %7 = fcmp olt double %0, %6
  br label %8

8:                                                ; preds = %5, %1
  %9 = phi i1 [ false, %1 ], [ %7, %5 ]
  ret i1 %9
}